ARM GAS  C:\Users\dj6dvj\AppData\Local\Temp\ccIwUh9E.s 			page 1


   1              		.cpu cortex-m3
   2              		.eabi_attribute 20, 1
   3              		.eabi_attribute 21, 1
   4              		.eabi_attribute 23, 3
   5              		.eabi_attribute 24, 1
   6              		.eabi_attribute 25, 1
   7              		.eabi_attribute 26, 1
   8              		.eabi_attribute 30, 1
   9              		.eabi_attribute 34, 1
  10              		.eabi_attribute 18, 4
  11              		.file	"main.c"
  12              		.text
  13              	.Ltext0:
  14              		.cfi_sections	.debug_frame
  15              		.section	.text.MX_GPIO_Init,"ax",%progbits
  16              		.align	1
  17              		.arch armv7-m
  18              		.syntax unified
  19              		.thumb
  20              		.thumb_func
  21              		.fpu softvfp
  23              	MX_GPIO_Init:
  24              	.LFB68:
  25              		.file 1 "Src/main.c"
   1:Src/main.c    **** /* USER CODE BEGIN Header */
   2:Src/main.c    **** /**
   3:Src/main.c    ****   ******************************************************************************
   4:Src/main.c    ****   * @file           : main.c
   5:Src/main.c    ****   * @brief          : Main program body
   6:Src/main.c    ****   ******************************************************************************
   7:Src/main.c    ****   * @attention
   8:Src/main.c    ****   *
   9:Src/main.c    ****   * <h2><center>&copy; Copyright (c) 2021 STMicroelectronics.
  10:Src/main.c    ****   * All rights reserved.</center></h2>
  11:Src/main.c    ****   *
  12:Src/main.c    ****   * This software component is licensed by ST under BSD 3-Clause license,
  13:Src/main.c    ****   * the "License"; You may not use this file except in compliance with the
  14:Src/main.c    ****   * License. You may obtain a copy of the License at:
  15:Src/main.c    ****   *                        opensource.org/licenses/BSD-3-Clause
  16:Src/main.c    ****   *
  17:Src/main.c    ****   ******************************************************************************
  18:Src/main.c    ****   */
  19:Src/main.c    **** /* USER CODE END Header */
  20:Src/main.c    **** 
  21:Src/main.c    **** /* Includes ------------------------------------------------------------------*/
  22:Src/main.c    **** #include "main.h"
  23:Src/main.c    **** 
  24:Src/main.c    **** /* Private includes ----------------------------------------------------------*/
  25:Src/main.c    **** /* USER CODE BEGIN Includes */
  26:Src/main.c    **** 
  27:Src/main.c    **** /* USER CODE END Includes */
  28:Src/main.c    **** 
  29:Src/main.c    **** /* Private typedef -----------------------------------------------------------*/
  30:Src/main.c    **** /* USER CODE BEGIN PTD */
  31:Src/main.c    **** 
  32:Src/main.c    **** /* USER CODE END PTD */
  33:Src/main.c    **** 
ARM GAS  C:\Users\dj6dvj\AppData\Local\Temp\ccIwUh9E.s 			page 2


  34:Src/main.c    **** /* Private define ------------------------------------------------------------*/
  35:Src/main.c    **** /* USER CODE BEGIN PD */
  36:Src/main.c    **** /* USER CODE END PD */
  37:Src/main.c    **** 
  38:Src/main.c    **** /* Private macro -------------------------------------------------------------*/
  39:Src/main.c    **** /* USER CODE BEGIN PM */
  40:Src/main.c    **** 
  41:Src/main.c    **** /* USER CODE END PM */
  42:Src/main.c    **** 
  43:Src/main.c    **** /* Private variables ---------------------------------------------------------*/
  44:Src/main.c    **** UART_HandleTypeDef huart2;
  45:Src/main.c    **** 
  46:Src/main.c    **** /* USER CODE BEGIN PV */
  47:Src/main.c    **** 
  48:Src/main.c    **** /* USER CODE END PV */
  49:Src/main.c    **** 
  50:Src/main.c    **** /* Private function prototypes -----------------------------------------------*/
  51:Src/main.c    **** void SystemClock_Config(void);
  52:Src/main.c    **** static void MX_GPIO_Init(void);
  53:Src/main.c    **** static void MX_USART2_UART_Init(void);
  54:Src/main.c    **** /* USER CODE BEGIN PFP */
  55:Src/main.c    **** 
  56:Src/main.c    **** /* USER CODE END PFP */
  57:Src/main.c    **** 
  58:Src/main.c    **** /* Private user code ---------------------------------------------------------*/
  59:Src/main.c    **** /* USER CODE BEGIN 0 */
  60:Src/main.c    **** 
  61:Src/main.c    **** /* USER CODE END 0 */
  62:Src/main.c    **** 
  63:Src/main.c    **** /**
  64:Src/main.c    ****   * @brief  The application entry point.
  65:Src/main.c    ****   * @retval int
  66:Src/main.c    ****   */
  67:Src/main.c    **** int main(void)
  68:Src/main.c    **** {
  69:Src/main.c    ****   /* USER CODE BEGIN 1 */
  70:Src/main.c    **** 
  71:Src/main.c    ****   /* USER CODE END 1 */
  72:Src/main.c    **** 
  73:Src/main.c    ****   /* MCU Configuration--------------------------------------------------------*/
  74:Src/main.c    **** 
  75:Src/main.c    ****   /* Reset of all peripherals, Initializes the Flash interface and the Systick. */
  76:Src/main.c    ****   HAL_Init();
  77:Src/main.c    **** 
  78:Src/main.c    ****   /* USER CODE BEGIN Init */
  79:Src/main.c    **** 
  80:Src/main.c    ****   /* USER CODE END Init */
  81:Src/main.c    **** 
  82:Src/main.c    ****   /* Configure the system clock */
  83:Src/main.c    ****   SystemClock_Config();
  84:Src/main.c    **** 
  85:Src/main.c    ****   /* USER CODE BEGIN SysInit */
  86:Src/main.c    **** 
  87:Src/main.c    ****   /* USER CODE END SysInit */
  88:Src/main.c    **** 
  89:Src/main.c    ****   /* Initialize all configured peripherals */
  90:Src/main.c    ****   MX_GPIO_Init();
ARM GAS  C:\Users\dj6dvj\AppData\Local\Temp\ccIwUh9E.s 			page 3


  91:Src/main.c    ****   MX_USART2_UART_Init();
  92:Src/main.c    ****   /* USER CODE BEGIN 2 */
  93:Src/main.c    **** 
  94:Src/main.c    ****   /* USER CODE END 2 */
  95:Src/main.c    **** 
  96:Src/main.c    ****   /* Infinite loop */
  97:Src/main.c    ****   /* USER CODE BEGIN WHILE */
  98:Src/main.c    ****   while (1)
  99:Src/main.c    ****   {
 100:Src/main.c    ****     /* USER CODE END WHILE */
 101:Src/main.c    ****     HAL_GPIO_WritePin(LD2_GPIO_Port,LD2_Pin,GPIO_PIN_SET);
 102:Src/main.c    ****     HAL_Delay(200);
 103:Src/main.c    ****     HAL_GPIO_WritePin(LD2_GPIO_Port,LD2_Pin,GPIO_PIN_RESET);
 104:Src/main.c    ****     HAL_Delay(200);
 105:Src/main.c    ****     HAL_GPIO_WritePin(LD2_GPIO_Port,LD2_Pin,GPIO_PIN_SET);
 106:Src/main.c    ****     HAL_Delay(1000);
 107:Src/main.c    ****     HAL_GPIO_WritePin(LD2_GPIO_Port,LD2_Pin,GPIO_PIN_RESET);
 108:Src/main.c    ****     HAL_Delay(200);
 109:Src/main.c    **** 
 110:Src/main.c    **** 
 111:Src/main.c    ****     /* USER CODE BEGIN 3 */
 112:Src/main.c    ****   }
 113:Src/main.c    ****   /* USER CODE END 3 */
 114:Src/main.c    **** }
 115:Src/main.c    **** 
 116:Src/main.c    **** /**
 117:Src/main.c    ****   * @brief System Clock Configuration
 118:Src/main.c    ****   * @retval None
 119:Src/main.c    ****   */
 120:Src/main.c    **** void SystemClock_Config(void)
 121:Src/main.c    **** {
 122:Src/main.c    ****   RCC_OscInitTypeDef RCC_OscInitStruct = {0};
 123:Src/main.c    ****   RCC_ClkInitTypeDef RCC_ClkInitStruct = {0};
 124:Src/main.c    **** 
 125:Src/main.c    ****   /** Initializes the CPU, AHB and APB busses clocks 
 126:Src/main.c    ****   */
 127:Src/main.c    ****   RCC_OscInitStruct.OscillatorType = RCC_OSCILLATORTYPE_HSI;
 128:Src/main.c    ****   RCC_OscInitStruct.HSIState = RCC_HSI_ON;
 129:Src/main.c    ****   RCC_OscInitStruct.HSICalibrationValue = RCC_HSICALIBRATION_DEFAULT;
 130:Src/main.c    ****   RCC_OscInitStruct.PLL.PLLState = RCC_PLL_ON;
 131:Src/main.c    ****   RCC_OscInitStruct.PLL.PLLSource = RCC_PLLSOURCE_HSI_DIV2;
 132:Src/main.c    ****   RCC_OscInitStruct.PLL.PLLMUL = RCC_PLL_MUL16;
 133:Src/main.c    ****   if (HAL_RCC_OscConfig(&RCC_OscInitStruct) != HAL_OK)
 134:Src/main.c    ****   {
 135:Src/main.c    ****     Error_Handler();
 136:Src/main.c    ****   }
 137:Src/main.c    ****   /** Initializes the CPU, AHB and APB busses clocks 
 138:Src/main.c    ****   */
 139:Src/main.c    ****   RCC_ClkInitStruct.ClockType = RCC_CLOCKTYPE_HCLK|RCC_CLOCKTYPE_SYSCLK
 140:Src/main.c    ****                               |RCC_CLOCKTYPE_PCLK1|RCC_CLOCKTYPE_PCLK2;
 141:Src/main.c    ****   RCC_ClkInitStruct.SYSCLKSource = RCC_SYSCLKSOURCE_PLLCLK;
 142:Src/main.c    ****   RCC_ClkInitStruct.AHBCLKDivider = RCC_SYSCLK_DIV1;
 143:Src/main.c    ****   RCC_ClkInitStruct.APB1CLKDivider = RCC_HCLK_DIV2;
 144:Src/main.c    ****   RCC_ClkInitStruct.APB2CLKDivider = RCC_HCLK_DIV1;
 145:Src/main.c    **** 
 146:Src/main.c    ****   if (HAL_RCC_ClockConfig(&RCC_ClkInitStruct, FLASH_LATENCY_2) != HAL_OK)
 147:Src/main.c    ****   {
ARM GAS  C:\Users\dj6dvj\AppData\Local\Temp\ccIwUh9E.s 			page 4


 148:Src/main.c    ****     Error_Handler();
 149:Src/main.c    ****   }
 150:Src/main.c    **** }
 151:Src/main.c    **** 
 152:Src/main.c    **** /**
 153:Src/main.c    ****   * @brief USART2 Initialization Function
 154:Src/main.c    ****   * @param None
 155:Src/main.c    ****   * @retval None
 156:Src/main.c    ****   */
 157:Src/main.c    **** static void MX_USART2_UART_Init(void)
 158:Src/main.c    **** {
 159:Src/main.c    **** 
 160:Src/main.c    ****   /* USER CODE BEGIN USART2_Init 0 */
 161:Src/main.c    **** 
 162:Src/main.c    ****   /* USER CODE END USART2_Init 0 */
 163:Src/main.c    **** 
 164:Src/main.c    ****   /* USER CODE BEGIN USART2_Init 1 */
 165:Src/main.c    **** 
 166:Src/main.c    ****   /* USER CODE END USART2_Init 1 */
 167:Src/main.c    ****   huart2.Instance = USART2;
 168:Src/main.c    ****   huart2.Init.BaudRate = 115200;
 169:Src/main.c    ****   huart2.Init.WordLength = UART_WORDLENGTH_8B;
 170:Src/main.c    ****   huart2.Init.StopBits = UART_STOPBITS_1;
 171:Src/main.c    ****   huart2.Init.Parity = UART_PARITY_NONE;
 172:Src/main.c    ****   huart2.Init.Mode = UART_MODE_TX_RX;
 173:Src/main.c    ****   huart2.Init.HwFlowCtl = UART_HWCONTROL_NONE;
 174:Src/main.c    ****   huart2.Init.OverSampling = UART_OVERSAMPLING_16;
 175:Src/main.c    ****   if (HAL_UART_Init(&huart2) != HAL_OK)
 176:Src/main.c    ****   {
 177:Src/main.c    ****     Error_Handler();
 178:Src/main.c    ****   }
 179:Src/main.c    ****   /* USER CODE BEGIN USART2_Init 2 */
 180:Src/main.c    **** 
 181:Src/main.c    ****   /* USER CODE END USART2_Init 2 */
 182:Src/main.c    **** 
 183:Src/main.c    **** }
 184:Src/main.c    **** 
 185:Src/main.c    **** /**
 186:Src/main.c    ****   * @brief GPIO Initialization Function
 187:Src/main.c    ****   * @param None
 188:Src/main.c    ****   * @retval None
 189:Src/main.c    ****   */
 190:Src/main.c    **** static void MX_GPIO_Init(void)
 191:Src/main.c    **** {
  26              		.loc 1 191 1 view -0
  27              		.cfi_startproc
  28              		@ args = 0, pretend = 0, frame = 32
  29              		@ frame_needed = 0, uses_anonymous_args = 0
  30 0000 30B5     		push	{r4, r5, lr}
  31              	.LCFI0:
  32              		.cfi_def_cfa_offset 12
  33              		.cfi_offset 4, -12
  34              		.cfi_offset 5, -8
  35              		.cfi_offset 14, -4
  36 0002 89B0     		sub	sp, sp, #36
  37              	.LCFI1:
  38              		.cfi_def_cfa_offset 48
ARM GAS  C:\Users\dj6dvj\AppData\Local\Temp\ccIwUh9E.s 			page 5


 192:Src/main.c    ****   GPIO_InitTypeDef GPIO_InitStruct = {0};
  39              		.loc 1 192 3 view .LVU1
  40              		.loc 1 192 20 is_stmt 0 view .LVU2
  41 0004 0024     		movs	r4, #0
  42 0006 0494     		str	r4, [sp, #16]
  43 0008 0594     		str	r4, [sp, #20]
  44 000a 0694     		str	r4, [sp, #24]
  45 000c 0794     		str	r4, [sp, #28]
 193:Src/main.c    **** 
 194:Src/main.c    ****   /* GPIO Ports Clock Enable */
 195:Src/main.c    ****   __HAL_RCC_GPIOC_CLK_ENABLE();
  46              		.loc 1 195 3 is_stmt 1 view .LVU3
  47              	.LBB2:
  48              		.loc 1 195 3 view .LVU4
  49              		.loc 1 195 3 view .LVU5
  50 000e 254B     		ldr	r3, .L3
  51 0010 9A69     		ldr	r2, [r3, #24]
  52 0012 42F01002 		orr	r2, r2, #16
  53 0016 9A61     		str	r2, [r3, #24]
  54              		.loc 1 195 3 view .LVU6
  55 0018 9A69     		ldr	r2, [r3, #24]
  56 001a 02F01002 		and	r2, r2, #16
  57 001e 0092     		str	r2, [sp]
  58              		.loc 1 195 3 view .LVU7
  59 0020 009A     		ldr	r2, [sp]
  60              	.LBE2:
  61              		.loc 1 195 3 view .LVU8
 196:Src/main.c    ****   __HAL_RCC_GPIOD_CLK_ENABLE();
  62              		.loc 1 196 3 view .LVU9
  63              	.LBB3:
  64              		.loc 1 196 3 view .LVU10
  65              		.loc 1 196 3 view .LVU11
  66 0022 9A69     		ldr	r2, [r3, #24]
  67 0024 42F02002 		orr	r2, r2, #32
  68 0028 9A61     		str	r2, [r3, #24]
  69              		.loc 1 196 3 view .LVU12
  70 002a 9A69     		ldr	r2, [r3, #24]
  71 002c 02F02002 		and	r2, r2, #32
  72 0030 0192     		str	r2, [sp, #4]
  73              		.loc 1 196 3 view .LVU13
  74 0032 019A     		ldr	r2, [sp, #4]
  75              	.LBE3:
  76              		.loc 1 196 3 view .LVU14
 197:Src/main.c    ****   __HAL_RCC_GPIOA_CLK_ENABLE();
  77              		.loc 1 197 3 view .LVU15
  78              	.LBB4:
  79              		.loc 1 197 3 view .LVU16
  80              		.loc 1 197 3 view .LVU17
  81 0034 9A69     		ldr	r2, [r3, #24]
  82 0036 42F00402 		orr	r2, r2, #4
  83 003a 9A61     		str	r2, [r3, #24]
  84              		.loc 1 197 3 view .LVU18
  85 003c 9A69     		ldr	r2, [r3, #24]
  86 003e 02F00402 		and	r2, r2, #4
  87 0042 0292     		str	r2, [sp, #8]
  88              		.loc 1 197 3 view .LVU19
  89 0044 029A     		ldr	r2, [sp, #8]
ARM GAS  C:\Users\dj6dvj\AppData\Local\Temp\ccIwUh9E.s 			page 6


  90              	.LBE4:
  91              		.loc 1 197 3 view .LVU20
 198:Src/main.c    ****   __HAL_RCC_GPIOB_CLK_ENABLE();
  92              		.loc 1 198 3 view .LVU21
  93              	.LBB5:
  94              		.loc 1 198 3 view .LVU22
  95              		.loc 1 198 3 view .LVU23
  96 0046 9A69     		ldr	r2, [r3, #24]
  97 0048 42F00802 		orr	r2, r2, #8
  98 004c 9A61     		str	r2, [r3, #24]
  99              		.loc 1 198 3 view .LVU24
 100 004e 9B69     		ldr	r3, [r3, #24]
 101 0050 03F00803 		and	r3, r3, #8
 102 0054 0393     		str	r3, [sp, #12]
 103              		.loc 1 198 3 view .LVU25
 104 0056 039B     		ldr	r3, [sp, #12]
 105              	.LBE5:
 106              		.loc 1 198 3 view .LVU26
 199:Src/main.c    **** 
 200:Src/main.c    ****   /*Configure GPIO pin Output Level */
 201:Src/main.c    ****   HAL_GPIO_WritePin(LD2_GPIO_Port, LD2_Pin, GPIO_PIN_RESET);
 107              		.loc 1 201 3 view .LVU27
 108 0058 134D     		ldr	r5, .L3+4
 109 005a 2246     		mov	r2, r4
 110 005c 2021     		movs	r1, #32
 111 005e 2846     		mov	r0, r5
 112 0060 FFF7FEFF 		bl	HAL_GPIO_WritePin
 113              	.LVL0:
 202:Src/main.c    **** 
 203:Src/main.c    ****   /*Configure GPIO pin : B1_Pin */
 204:Src/main.c    ****   GPIO_InitStruct.Pin = B1_Pin;
 114              		.loc 1 204 3 view .LVU28
 115              		.loc 1 204 23 is_stmt 0 view .LVU29
 116 0064 4FF40053 		mov	r3, #8192
 117 0068 0493     		str	r3, [sp, #16]
 205:Src/main.c    ****   GPIO_InitStruct.Mode = GPIO_MODE_IT_RISING;
 118              		.loc 1 205 3 is_stmt 1 view .LVU30
 119              		.loc 1 205 24 is_stmt 0 view .LVU31
 120 006a 104B     		ldr	r3, .L3+8
 121 006c 0593     		str	r3, [sp, #20]
 206:Src/main.c    ****   GPIO_InitStruct.Pull = GPIO_NOPULL;
 122              		.loc 1 206 3 is_stmt 1 view .LVU32
 123              		.loc 1 206 24 is_stmt 0 view .LVU33
 124 006e 0694     		str	r4, [sp, #24]
 207:Src/main.c    ****   HAL_GPIO_Init(B1_GPIO_Port, &GPIO_InitStruct);
 125              		.loc 1 207 3 is_stmt 1 view .LVU34
 126 0070 04A9     		add	r1, sp, #16
 127 0072 0F48     		ldr	r0, .L3+12
 128 0074 FFF7FEFF 		bl	HAL_GPIO_Init
 129              	.LVL1:
 208:Src/main.c    **** 
 209:Src/main.c    ****   /*Configure GPIO pin : LD2_Pin */
 210:Src/main.c    ****   GPIO_InitStruct.Pin = LD2_Pin;
 130              		.loc 1 210 3 view .LVU35
 131              		.loc 1 210 23 is_stmt 0 view .LVU36
 132 0078 2023     		movs	r3, #32
 133 007a 0493     		str	r3, [sp, #16]
ARM GAS  C:\Users\dj6dvj\AppData\Local\Temp\ccIwUh9E.s 			page 7


 211:Src/main.c    ****   GPIO_InitStruct.Mode = GPIO_MODE_OUTPUT_PP;
 134              		.loc 1 211 3 is_stmt 1 view .LVU37
 135              		.loc 1 211 24 is_stmt 0 view .LVU38
 136 007c 0123     		movs	r3, #1
 137 007e 0593     		str	r3, [sp, #20]
 212:Src/main.c    ****   GPIO_InitStruct.Pull = GPIO_NOPULL;
 138              		.loc 1 212 3 is_stmt 1 view .LVU39
 139              		.loc 1 212 24 is_stmt 0 view .LVU40
 140 0080 0694     		str	r4, [sp, #24]
 213:Src/main.c    ****   GPIO_InitStruct.Speed = GPIO_SPEED_FREQ_LOW;
 141              		.loc 1 213 3 is_stmt 1 view .LVU41
 142              		.loc 1 213 25 is_stmt 0 view .LVU42
 143 0082 0223     		movs	r3, #2
 144 0084 0793     		str	r3, [sp, #28]
 214:Src/main.c    ****   HAL_GPIO_Init(LD2_GPIO_Port, &GPIO_InitStruct);
 145              		.loc 1 214 3 is_stmt 1 view .LVU43
 146 0086 04A9     		add	r1, sp, #16
 147 0088 2846     		mov	r0, r5
 148 008a FFF7FEFF 		bl	HAL_GPIO_Init
 149              	.LVL2:
 215:Src/main.c    **** 
 216:Src/main.c    ****   /* EXTI interrupt init*/
 217:Src/main.c    ****   HAL_NVIC_SetPriority(EXTI15_10_IRQn, 0, 0);
 150              		.loc 1 217 3 view .LVU44
 151 008e 2246     		mov	r2, r4
 152 0090 2146     		mov	r1, r4
 153 0092 2820     		movs	r0, #40
 154 0094 FFF7FEFF 		bl	HAL_NVIC_SetPriority
 155              	.LVL3:
 218:Src/main.c    ****   HAL_NVIC_EnableIRQ(EXTI15_10_IRQn);
 156              		.loc 1 218 3 view .LVU45
 157 0098 2820     		movs	r0, #40
 158 009a FFF7FEFF 		bl	HAL_NVIC_EnableIRQ
 159              	.LVL4:
 219:Src/main.c    **** 
 220:Src/main.c    **** }
 160              		.loc 1 220 1 is_stmt 0 view .LVU46
 161 009e 09B0     		add	sp, sp, #36
 162              	.LCFI2:
 163              		.cfi_def_cfa_offset 12
 164              		@ sp needed
 165 00a0 30BD     		pop	{r4, r5, pc}
 166              	.L4:
 167 00a2 00BF     		.align	2
 168              	.L3:
 169 00a4 00100240 		.word	1073876992
 170 00a8 00080140 		.word	1073809408
 171 00ac 00001110 		.word	269549568
 172 00b0 00100140 		.word	1073811456
 173              		.cfi_endproc
 174              	.LFE68:
 176              		.section	.text.MX_USART2_UART_Init,"ax",%progbits
 177              		.align	1
 178              		.syntax unified
 179              		.thumb
 180              		.thumb_func
 181              		.fpu softvfp
ARM GAS  C:\Users\dj6dvj\AppData\Local\Temp\ccIwUh9E.s 			page 8


 183              	MX_USART2_UART_Init:
 184              	.LFB67:
 158:Src/main.c    **** 
 185              		.loc 1 158 1 is_stmt 1 view -0
 186              		.cfi_startproc
 187              		@ args = 0, pretend = 0, frame = 0
 188              		@ frame_needed = 0, uses_anonymous_args = 0
 189 0000 08B5     		push	{r3, lr}
 190              	.LCFI3:
 191              		.cfi_def_cfa_offset 8
 192              		.cfi_offset 3, -8
 193              		.cfi_offset 14, -4
 167:Src/main.c    ****   huart2.Init.BaudRate = 115200;
 194              		.loc 1 167 3 view .LVU48
 167:Src/main.c    ****   huart2.Init.BaudRate = 115200;
 195              		.loc 1 167 19 is_stmt 0 view .LVU49
 196 0002 0848     		ldr	r0, .L7
 197 0004 084B     		ldr	r3, .L7+4
 198 0006 0360     		str	r3, [r0]
 168:Src/main.c    ****   huart2.Init.WordLength = UART_WORDLENGTH_8B;
 199              		.loc 1 168 3 is_stmt 1 view .LVU50
 168:Src/main.c    ****   huart2.Init.WordLength = UART_WORDLENGTH_8B;
 200              		.loc 1 168 24 is_stmt 0 view .LVU51
 201 0008 4FF4E133 		mov	r3, #115200
 202 000c 4360     		str	r3, [r0, #4]
 169:Src/main.c    ****   huart2.Init.StopBits = UART_STOPBITS_1;
 203              		.loc 1 169 3 is_stmt 1 view .LVU52
 169:Src/main.c    ****   huart2.Init.StopBits = UART_STOPBITS_1;
 204              		.loc 1 169 26 is_stmt 0 view .LVU53
 205 000e 0023     		movs	r3, #0
 206 0010 8360     		str	r3, [r0, #8]
 170:Src/main.c    ****   huart2.Init.Parity = UART_PARITY_NONE;
 207              		.loc 1 170 3 is_stmt 1 view .LVU54
 170:Src/main.c    ****   huart2.Init.Parity = UART_PARITY_NONE;
 208              		.loc 1 170 24 is_stmt 0 view .LVU55
 209 0012 C360     		str	r3, [r0, #12]
 171:Src/main.c    ****   huart2.Init.Mode = UART_MODE_TX_RX;
 210              		.loc 1 171 3 is_stmt 1 view .LVU56
 171:Src/main.c    ****   huart2.Init.Mode = UART_MODE_TX_RX;
 211              		.loc 1 171 22 is_stmt 0 view .LVU57
 212 0014 0361     		str	r3, [r0, #16]
 172:Src/main.c    ****   huart2.Init.HwFlowCtl = UART_HWCONTROL_NONE;
 213              		.loc 1 172 3 is_stmt 1 view .LVU58
 172:Src/main.c    ****   huart2.Init.HwFlowCtl = UART_HWCONTROL_NONE;
 214              		.loc 1 172 20 is_stmt 0 view .LVU59
 215 0016 0C22     		movs	r2, #12
 216 0018 4261     		str	r2, [r0, #20]
 173:Src/main.c    ****   huart2.Init.OverSampling = UART_OVERSAMPLING_16;
 217              		.loc 1 173 3 is_stmt 1 view .LVU60
 173:Src/main.c    ****   huart2.Init.OverSampling = UART_OVERSAMPLING_16;
 218              		.loc 1 173 25 is_stmt 0 view .LVU61
 219 001a 8361     		str	r3, [r0, #24]
 174:Src/main.c    ****   if (HAL_UART_Init(&huart2) != HAL_OK)
 220              		.loc 1 174 3 is_stmt 1 view .LVU62
 174:Src/main.c    ****   if (HAL_UART_Init(&huart2) != HAL_OK)
 221              		.loc 1 174 28 is_stmt 0 view .LVU63
 222 001c C361     		str	r3, [r0, #28]
ARM GAS  C:\Users\dj6dvj\AppData\Local\Temp\ccIwUh9E.s 			page 9


 175:Src/main.c    ****   {
 223              		.loc 1 175 3 is_stmt 1 view .LVU64
 175:Src/main.c    ****   {
 224              		.loc 1 175 7 is_stmt 0 view .LVU65
 225 001e FFF7FEFF 		bl	HAL_UART_Init
 226              	.LVL5:
 183:Src/main.c    **** 
 227              		.loc 1 183 1 view .LVU66
 228 0022 08BD     		pop	{r3, pc}
 229              	.L8:
 230              		.align	2
 231              	.L7:
 232 0024 00000000 		.word	.LANCHOR0
 233 0028 00440040 		.word	1073759232
 234              		.cfi_endproc
 235              	.LFE67:
 237              		.section	.text.SystemClock_Config,"ax",%progbits
 238              		.align	1
 239              		.global	SystemClock_Config
 240              		.syntax unified
 241              		.thumb
 242              		.thumb_func
 243              		.fpu softvfp
 245              	SystemClock_Config:
 246              	.LFB66:
 121:Src/main.c    ****   RCC_OscInitTypeDef RCC_OscInitStruct = {0};
 247              		.loc 1 121 1 is_stmt 1 view -0
 248              		.cfi_startproc
 249              		@ args = 0, pretend = 0, frame = 64
 250              		@ frame_needed = 0, uses_anonymous_args = 0
 251 0000 30B5     		push	{r4, r5, lr}
 252              	.LCFI4:
 253              		.cfi_def_cfa_offset 12
 254              		.cfi_offset 4, -12
 255              		.cfi_offset 5, -8
 256              		.cfi_offset 14, -4
 257 0002 91B0     		sub	sp, sp, #68
 258              	.LCFI5:
 259              		.cfi_def_cfa_offset 80
 122:Src/main.c    ****   RCC_ClkInitTypeDef RCC_ClkInitStruct = {0};
 260              		.loc 1 122 3 view .LVU68
 122:Src/main.c    ****   RCC_ClkInitTypeDef RCC_ClkInitStruct = {0};
 261              		.loc 1 122 22 is_stmt 0 view .LVU69
 262 0004 2822     		movs	r2, #40
 263 0006 0021     		movs	r1, #0
 264 0008 06A8     		add	r0, sp, #24
 265 000a FFF7FEFF 		bl	memset
 266              	.LVL6:
 123:Src/main.c    **** 
 267              		.loc 1 123 3 is_stmt 1 view .LVU70
 123:Src/main.c    **** 
 268              		.loc 1 123 22 is_stmt 0 view .LVU71
 269 000e 0024     		movs	r4, #0
 270 0010 0194     		str	r4, [sp, #4]
 271 0012 0294     		str	r4, [sp, #8]
 272 0014 0394     		str	r4, [sp, #12]
 273 0016 0494     		str	r4, [sp, #16]
ARM GAS  C:\Users\dj6dvj\AppData\Local\Temp\ccIwUh9E.s 			page 10


 274 0018 0594     		str	r4, [sp, #20]
 127:Src/main.c    ****   RCC_OscInitStruct.HSIState = RCC_HSI_ON;
 275              		.loc 1 127 3 is_stmt 1 view .LVU72
 127:Src/main.c    ****   RCC_OscInitStruct.HSIState = RCC_HSI_ON;
 276              		.loc 1 127 36 is_stmt 0 view .LVU73
 277 001a 0225     		movs	r5, #2
 278 001c 0695     		str	r5, [sp, #24]
 128:Src/main.c    ****   RCC_OscInitStruct.HSICalibrationValue = RCC_HSICALIBRATION_DEFAULT;
 279              		.loc 1 128 3 is_stmt 1 view .LVU74
 128:Src/main.c    ****   RCC_OscInitStruct.HSICalibrationValue = RCC_HSICALIBRATION_DEFAULT;
 280              		.loc 1 128 30 is_stmt 0 view .LVU75
 281 001e 0123     		movs	r3, #1
 282 0020 0A93     		str	r3, [sp, #40]
 129:Src/main.c    ****   RCC_OscInitStruct.PLL.PLLState = RCC_PLL_ON;
 283              		.loc 1 129 3 is_stmt 1 view .LVU76
 129:Src/main.c    ****   RCC_OscInitStruct.PLL.PLLState = RCC_PLL_ON;
 284              		.loc 1 129 41 is_stmt 0 view .LVU77
 285 0022 1023     		movs	r3, #16
 286 0024 0B93     		str	r3, [sp, #44]
 130:Src/main.c    ****   RCC_OscInitStruct.PLL.PLLSource = RCC_PLLSOURCE_HSI_DIV2;
 287              		.loc 1 130 3 is_stmt 1 view .LVU78
 130:Src/main.c    ****   RCC_OscInitStruct.PLL.PLLSource = RCC_PLLSOURCE_HSI_DIV2;
 288              		.loc 1 130 34 is_stmt 0 view .LVU79
 289 0026 0D95     		str	r5, [sp, #52]
 131:Src/main.c    ****   RCC_OscInitStruct.PLL.PLLMUL = RCC_PLL_MUL16;
 290              		.loc 1 131 3 is_stmt 1 view .LVU80
 132:Src/main.c    ****   if (HAL_RCC_OscConfig(&RCC_OscInitStruct) != HAL_OK)
 291              		.loc 1 132 3 view .LVU81
 132:Src/main.c    ****   if (HAL_RCC_OscConfig(&RCC_OscInitStruct) != HAL_OK)
 292              		.loc 1 132 32 is_stmt 0 view .LVU82
 293 0028 4FF46013 		mov	r3, #3670016
 294 002c 0F93     		str	r3, [sp, #60]
 133:Src/main.c    ****   {
 295              		.loc 1 133 3 is_stmt 1 view .LVU83
 133:Src/main.c    ****   {
 296              		.loc 1 133 7 is_stmt 0 view .LVU84
 297 002e 06A8     		add	r0, sp, #24
 298 0030 FFF7FEFF 		bl	HAL_RCC_OscConfig
 299              	.LVL7:
 139:Src/main.c    ****                               |RCC_CLOCKTYPE_PCLK1|RCC_CLOCKTYPE_PCLK2;
 300              		.loc 1 139 3 is_stmt 1 view .LVU85
 139:Src/main.c    ****                               |RCC_CLOCKTYPE_PCLK1|RCC_CLOCKTYPE_PCLK2;
 301              		.loc 1 139 31 is_stmt 0 view .LVU86
 302 0034 0F23     		movs	r3, #15
 303 0036 0193     		str	r3, [sp, #4]
 141:Src/main.c    ****   RCC_ClkInitStruct.AHBCLKDivider = RCC_SYSCLK_DIV1;
 304              		.loc 1 141 3 is_stmt 1 view .LVU87
 141:Src/main.c    ****   RCC_ClkInitStruct.AHBCLKDivider = RCC_SYSCLK_DIV1;
 305              		.loc 1 141 34 is_stmt 0 view .LVU88
 306 0038 0295     		str	r5, [sp, #8]
 142:Src/main.c    ****   RCC_ClkInitStruct.APB1CLKDivider = RCC_HCLK_DIV2;
 307              		.loc 1 142 3 is_stmt 1 view .LVU89
 142:Src/main.c    ****   RCC_ClkInitStruct.APB1CLKDivider = RCC_HCLK_DIV2;
 308              		.loc 1 142 35 is_stmt 0 view .LVU90
 309 003a 0394     		str	r4, [sp, #12]
 143:Src/main.c    ****   RCC_ClkInitStruct.APB2CLKDivider = RCC_HCLK_DIV1;
 310              		.loc 1 143 3 is_stmt 1 view .LVU91
ARM GAS  C:\Users\dj6dvj\AppData\Local\Temp\ccIwUh9E.s 			page 11


 143:Src/main.c    ****   RCC_ClkInitStruct.APB2CLKDivider = RCC_HCLK_DIV1;
 311              		.loc 1 143 36 is_stmt 0 view .LVU92
 312 003c 4FF48063 		mov	r3, #1024
 313 0040 0493     		str	r3, [sp, #16]
 144:Src/main.c    **** 
 314              		.loc 1 144 3 is_stmt 1 view .LVU93
 144:Src/main.c    **** 
 315              		.loc 1 144 36 is_stmt 0 view .LVU94
 316 0042 0594     		str	r4, [sp, #20]
 146:Src/main.c    ****   {
 317              		.loc 1 146 3 is_stmt 1 view .LVU95
 146:Src/main.c    ****   {
 318              		.loc 1 146 7 is_stmt 0 view .LVU96
 319 0044 2946     		mov	r1, r5
 320 0046 01A8     		add	r0, sp, #4
 321 0048 FFF7FEFF 		bl	HAL_RCC_ClockConfig
 322              	.LVL8:
 150:Src/main.c    **** 
 323              		.loc 1 150 1 view .LVU97
 324 004c 11B0     		add	sp, sp, #68
 325              	.LCFI6:
 326              		.cfi_def_cfa_offset 12
 327              		@ sp needed
 328 004e 30BD     		pop	{r4, r5, pc}
 329              		.cfi_endproc
 330              	.LFE66:
 332              		.section	.text.main,"ax",%progbits
 333              		.align	1
 334              		.global	main
 335              		.syntax unified
 336              		.thumb
 337              		.thumb_func
 338              		.fpu softvfp
 340              	main:
 341              	.LFB65:
  68:Src/main.c    ****   /* USER CODE BEGIN 1 */
 342              		.loc 1 68 1 is_stmt 1 view -0
 343              		.cfi_startproc
 344              		@ Volatile: function does not return.
 345              		@ args = 0, pretend = 0, frame = 0
 346              		@ frame_needed = 0, uses_anonymous_args = 0
 347 0000 08B5     		push	{r3, lr}
 348              	.LCFI7:
 349              		.cfi_def_cfa_offset 8
 350              		.cfi_offset 3, -8
 351              		.cfi_offset 14, -4
  76:Src/main.c    **** 
 352              		.loc 1 76 3 view .LVU99
 353 0002 FFF7FEFF 		bl	HAL_Init
 354              	.LVL9:
  83:Src/main.c    **** 
 355              		.loc 1 83 3 view .LVU100
 356 0006 FFF7FEFF 		bl	SystemClock_Config
 357              	.LVL10:
  90:Src/main.c    ****   MX_USART2_UART_Init();
 358              		.loc 1 90 3 view .LVU101
 359 000a FFF7FEFF 		bl	MX_GPIO_Init
ARM GAS  C:\Users\dj6dvj\AppData\Local\Temp\ccIwUh9E.s 			page 12


 360              	.LVL11:
  91:Src/main.c    ****   /* USER CODE BEGIN 2 */
 361              		.loc 1 91 3 view .LVU102
 362 000e FFF7FEFF 		bl	MX_USART2_UART_Init
 363              	.LVL12:
 364              	.L12:
  98:Src/main.c    ****   {
 365              		.loc 1 98 3 discriminator 1 view .LVU103
 101:Src/main.c    ****     HAL_Delay(200);
 366              		.loc 1 101 5 discriminator 1 view .LVU104
 367 0012 114C     		ldr	r4, .L14
 368 0014 0122     		movs	r2, #1
 369 0016 2021     		movs	r1, #32
 370 0018 2046     		mov	r0, r4
 371 001a FFF7FEFF 		bl	HAL_GPIO_WritePin
 372              	.LVL13:
 102:Src/main.c    ****     HAL_GPIO_WritePin(LD2_GPIO_Port,LD2_Pin,GPIO_PIN_RESET);
 373              		.loc 1 102 5 discriminator 1 view .LVU105
 374 001e C820     		movs	r0, #200
 375 0020 FFF7FEFF 		bl	HAL_Delay
 376              	.LVL14:
 103:Src/main.c    ****     HAL_Delay(200);
 377              		.loc 1 103 5 discriminator 1 view .LVU106
 378 0024 0022     		movs	r2, #0
 379 0026 2021     		movs	r1, #32
 380 0028 2046     		mov	r0, r4
 381 002a FFF7FEFF 		bl	HAL_GPIO_WritePin
 382              	.LVL15:
 104:Src/main.c    ****     HAL_GPIO_WritePin(LD2_GPIO_Port,LD2_Pin,GPIO_PIN_SET);
 383              		.loc 1 104 5 discriminator 1 view .LVU107
 384 002e C820     		movs	r0, #200
 385 0030 FFF7FEFF 		bl	HAL_Delay
 386              	.LVL16:
 105:Src/main.c    ****     HAL_Delay(1000);
 387              		.loc 1 105 5 discriminator 1 view .LVU108
 388 0034 0122     		movs	r2, #1
 389 0036 2021     		movs	r1, #32
 390 0038 2046     		mov	r0, r4
 391 003a FFF7FEFF 		bl	HAL_GPIO_WritePin
 392              	.LVL17:
 106:Src/main.c    ****     HAL_GPIO_WritePin(LD2_GPIO_Port,LD2_Pin,GPIO_PIN_RESET);
 393              		.loc 1 106 5 discriminator 1 view .LVU109
 394 003e 4FF47A70 		mov	r0, #1000
 395 0042 FFF7FEFF 		bl	HAL_Delay
 396              	.LVL18:
 107:Src/main.c    ****     HAL_Delay(200);
 397              		.loc 1 107 5 discriminator 1 view .LVU110
 398 0046 0022     		movs	r2, #0
 399 0048 2021     		movs	r1, #32
 400 004a 2046     		mov	r0, r4
 401 004c FFF7FEFF 		bl	HAL_GPIO_WritePin
 402              	.LVL19:
 108:Src/main.c    **** 
 403              		.loc 1 108 5 discriminator 1 view .LVU111
 404 0050 C820     		movs	r0, #200
 405 0052 FFF7FEFF 		bl	HAL_Delay
 406              	.LVL20:
ARM GAS  C:\Users\dj6dvj\AppData\Local\Temp\ccIwUh9E.s 			page 13


  98:Src/main.c    ****   {
 407              		.loc 1 98 9 discriminator 1 view .LVU112
 408 0056 DCE7     		b	.L12
 409              	.L15:
 410              		.align	2
 411              	.L14:
 412 0058 00080140 		.word	1073809408
 413              		.cfi_endproc
 414              	.LFE65:
 416              		.section	.text.Error_Handler,"ax",%progbits
 417              		.align	1
 418              		.global	Error_Handler
 419              		.syntax unified
 420              		.thumb
 421              		.thumb_func
 422              		.fpu softvfp
 424              	Error_Handler:
 425              	.LFB69:
 221:Src/main.c    **** 
 222:Src/main.c    **** /* USER CODE BEGIN 4 */
 223:Src/main.c    **** 
 224:Src/main.c    **** /* USER CODE END 4 */
 225:Src/main.c    **** 
 226:Src/main.c    **** /**
 227:Src/main.c    ****   * @brief  This function is executed in case of error occurrence.
 228:Src/main.c    ****   * @retval None
 229:Src/main.c    ****   */
 230:Src/main.c    **** void Error_Handler(void)
 231:Src/main.c    **** {
 426              		.loc 1 231 1 view -0
 427              		.cfi_startproc
 428              		@ args = 0, pretend = 0, frame = 0
 429              		@ frame_needed = 0, uses_anonymous_args = 0
 430              		@ link register save eliminated.
 232:Src/main.c    ****   /* USER CODE BEGIN Error_Handler_Debug */
 233:Src/main.c    ****   /* User can add his own implementation to report the HAL error return state */
 234:Src/main.c    **** 
 235:Src/main.c    ****   /* USER CODE END Error_Handler_Debug */
 236:Src/main.c    **** }
 431              		.loc 1 236 1 view .LVU114
 432 0000 7047     		bx	lr
 433              		.cfi_endproc
 434              	.LFE69:
 436              		.global	huart2
 437              		.section	.bss.huart2,"aw",%nobits
 438              		.align	2
 439              		.set	.LANCHOR0,. + 0
 442              	huart2:
 443 0000 00000000 		.space	64
 443      00000000 
 443      00000000 
 443      00000000 
 443      00000000 
 444              		.text
 445              	.Letext0:
 446              		.file 2 "c:\\users\\dj6dvj\\myfiles\\programming\\tools\\arm_gnu_toolchain\\gcc-arm-none-eabi-10-2
 447              		.file 3 "c:\\users\\dj6dvj\\myfiles\\programming\\tools\\arm_gnu_toolchain\\gcc-arm-none-eabi-10-2
ARM GAS  C:\Users\dj6dvj\AppData\Local\Temp\ccIwUh9E.s 			page 14


 448              		.file 4 "Drivers/CMSIS/Device/ST/STM32F1xx/Include/stm32f103xb.h"
 449              		.file 5 "Drivers/STM32F1xx_HAL_Driver/Inc/stm32f1xx_hal_def.h"
 450              		.file 6 "Drivers/STM32F1xx_HAL_Driver/Inc/stm32f1xx_hal_rcc.h"
 451              		.file 7 "Drivers/STM32F1xx_HAL_Driver/Inc/stm32f1xx_hal_rcc_ex.h"
 452              		.file 8 "Drivers/STM32F1xx_HAL_Driver/Inc/stm32f1xx_hal_gpio.h"
 453              		.file 9 "Drivers/STM32F1xx_HAL_Driver/Inc/stm32f1xx_hal_dma.h"
 454              		.file 10 "Drivers/STM32F1xx_HAL_Driver/Inc/stm32f1xx_hal_uart.h"
 455              		.file 11 "Drivers/STM32F1xx_HAL_Driver/Inc/stm32f1xx_hal_cortex.h"
 456              		.file 12 "Drivers/STM32F1xx_HAL_Driver/Inc/stm32f1xx_hal.h"
 457              		.file 13 "<built-in>"
ARM GAS  C:\Users\dj6dvj\AppData\Local\Temp\ccIwUh9E.s 			page 15

